target datalayout = "e-m:e-p270:32:32-p271:32:32-p272:64:64-i64:64-i128:128-f80:128-n8:16:32:64-S128"
target triple = "x86_64-pc-linux-gnu"

%struct.Qureg = type { i32, i32, i32, i64, i64, i32, i32, %struct.ComplexArray, %struct.ComplexArray, %struct.ComplexArray, ptr, ptr, ptr, ptr, ptr, ptr }
%struct.ComplexArray = type { ptr, ptr }
%struct.Complex = type { double, double }

@__func__.compactUnitary = private unnamed_addr constant [15 x i8] c"compactUnitary\00", align 1

; Function Attrs: nounwind uwtable
define void @compactUnitary(ptr noundef byval(%struct.Qureg) align 8 %0, i32 noundef %1, double %2, double %3, double %4, double %5) #0 {
  %7 = alloca %struct.Complex, align 8
  %8 = alloca %struct.Complex, align 8
  %9 = alloca i32, align 4
  %10 = alloca i32, align 4
  %11 = alloca %struct.Complex, align 8
  %12 = alloca %struct.Complex, align 8
  %13 = getelementptr inbounds nuw { double, double }, ptr %7, i32 0, i32 0
  store double %2, ptr %13, align 8
  %14 = getelementptr inbounds nuw { double, double }, ptr %7, i32 0, i32 1
  store double %3, ptr %14, align 8
  %15 = getelementptr inbounds nuw { double, double }, ptr %8, i32 0, i32 0
  store double %4, ptr %15, align 8
  %16 = getelementptr inbounds nuw { double, double }, ptr %8, i32 0, i32 1
  store double %5, ptr %16, align 8
  store i32 %1, ptr %9, align 4, !tbaa !4
  %17 = load i32, ptr %9, align 4, !tbaa !4
  call void @validateTarget(ptr noundef byval(%struct.Qureg) align 8 %0, i32 noundef %17, ptr noundef @__func__.compactUnitary)
  %18 = getelementptr inbounds nuw { double, double }, ptr %7, i32 0, i32 0
  %19 = load double, ptr %18, align 8
  %20 = getelementptr inbounds nuw { double, double }, ptr %7, i32 0, i32 1
  %21 = load double, ptr %20, align 8
  %22 = getelementptr inbounds nuw { double, double }, ptr %8, i32 0, i32 0
  %23 = load double, ptr %22, align 8
  %24 = getelementptr inbounds nuw { double, double }, ptr %8, i32 0, i32 1
  %25 = load double, ptr %24, align 8
  call void @validateUnitaryComplexPair(double %19, double %21, double %23, double %25, ptr noundef @__func__.compactUnitary)
  %26 = load i32, ptr %9, align 4, !tbaa !4
  %27 = getelementptr inbounds nuw { double, double }, ptr %7, i32 0, i32 0
  %28 = load double, ptr %27, align 8
  %29 = getelementptr inbounds nuw { double, double }, ptr %7, i32 0, i32 1
  %30 = load double, ptr %29, align 8
  %31 = getelementptr inbounds nuw { double, double }, ptr %8, i32 0, i32 0
  %32 = load double, ptr %31, align 8
  %33 = getelementptr inbounds nuw { double, double }, ptr %8, i32 0, i32 1
  %34 = load double, ptr %33, align 8
  call void @statevec_compactUnitary(ptr noundef byval(%struct.Qureg) align 8 %0, i32 noundef %26, double %28, double %30, double %32, double %34)
  %35 = getelementptr inbounds nuw %struct.Qureg, ptr %0, i32 0, i32 0
  %36 = load i32, ptr %35, align 8, !tbaa !13
  %37 = icmp ne i32 %36, 0
  br i1 %37, label %38, label %70

38:                                               ; preds = %6
  call void @llvm.lifetime.start.p0(i64 4, ptr %10) #7
  %39 = getelementptr inbounds nuw %struct.Qureg, ptr %0, i32 0, i32 1
  %40 = load i32, ptr %39, align 4, !tbaa !18
  store i32 %40, ptr %10, align 4, !tbaa !4
  %41 = load i32, ptr %9, align 4, !tbaa !4
  %42 = load i32, ptr %10, align 4, !tbaa !4
  %43 = add nsw i32 %41, %42
  %44 = getelementptr inbounds nuw { double, double }, ptr %7, i32 0, i32 0
  %45 = load double, ptr %44, align 8
  %46 = getelementptr inbounds nuw { double, double }, ptr %7, i32 0, i32 1
  %47 = load double, ptr %46, align 8
  %48 = call { double, double } @getConjugateScalar(double %45, double %47)
  %49 = getelementptr inbounds nuw { double, double }, ptr %11, i32 0, i32 0
  %50 = extractvalue { double, double } %48, 0
  store double %50, ptr %49, align 8
  %51 = getelementptr inbounds nuw { double, double }, ptr %11, i32 0, i32 1
  %52 = extractvalue { double, double } %48, 1
  store double %52, ptr %51, align 8
  %53 = getelementptr inbounds nuw { double, double }, ptr %8, i32 0, i32 0
  %54 = load double, ptr %53, align 8
  %55 = getelementptr inbounds nuw { double, double }, ptr %8, i32 0, i32 1
  %56 = load double, ptr %55, align 8
  %57 = call { double, double } @getConjugateScalar(double %54, double %56)
  %58 = getelementptr inbounds nuw { double, double }, ptr %12, i32 0, i32 0
  %59 = extractvalue { double, double } %57, 0
  store double %59, ptr %58, align 8
  %60 = getelementptr inbounds nuw { double, double }, ptr %12, i32 0, i32 1
  %61 = extractvalue { double, double } %57, 1
  store double %61, ptr %60, align 8
  %62 = getelementptr inbounds nuw { double, double }, ptr %11, i32 0, i32 0
  %63 = load double, ptr %62, align 8
  %64 = getelementptr inbounds nuw { double, double }, ptr %11, i32 0, i32 1
  %65 = load double, ptr %64, align 8
  %66 = getelementptr inbounds nuw { double, double }, ptr %12, i32 0, i32 0
  %67 = load double, ptr %66, align 8
  %68 = getelementptr inbounds nuw { double, double }, ptr %12, i32 0, i32 1
  %69 = load double, ptr %68, align 8
  call void @statevec_compactUnitary(ptr noundef byval(%struct.Qureg) align 8 %0, i32 noundef %43, double %63, double %65, double %67, double %69)
  call void @llvm.lifetime.end.p0(i64 4, ptr %10) #7
  br label %70

70:                                               ; preds = %38, %6
  %71 = load i32, ptr %9, align 4, !tbaa !4
  %72 = getelementptr inbounds nuw { double, double }, ptr %7, i32 0, i32 0
  %73 = load double, ptr %72, align 8
  %74 = getelementptr inbounds nuw { double, double }, ptr %7, i32 0, i32 1
  %75 = load double, ptr %74, align 8
  %76 = getelementptr inbounds nuw { double, double }, ptr %8, i32 0, i32 0
  %77 = load double, ptr %76, align 8
  %78 = getelementptr inbounds nuw { double, double }, ptr %8, i32 0, i32 1
  %79 = load double, ptr %78, align 8
  call void @qasm_recordCompactUnitary(ptr noundef byval(%struct.Qureg) align 8 %0, double %73, double %75, double %77, double %79, i32 noundef %71)
  ret void
}