; Function Attrs: nounwind uwtable
define void @compactUnitary(ptr noundef readonly byval(%struct.Qureg) align 8 captures(none) %0, i32 noundef %1, double %2, double %3, double %4, double %5) local_unnamed_addr #0 {
  tail call void @validateTarget(ptr noundef nonnull byval(%struct.Qureg) align 8 %0, i32 noundef %1, ptr noundef nonnull @__func__.compactUnitary) #17
  tail call void @validateUnitaryComplexPair(double %2, double %3, double %4, double %5, ptr noundef nonnull @__func__.compactUnitary) #17
  tail call void @statevec_compactUnitary(ptr noundef nonnull byval(%struct.Qureg) align 8 %0, i32 noundef %1, double %2, double %3, double %4, double %5) #17
  %7 = load i32, ptr %0, align 8, !tbaa !12
  %.not = icmp eq i32 %7, 0
  br i1 %.not, label %18, label %8

8:                                                ; preds = %6
  %9 = getelementptr inbounds nuw i8, ptr %0, i64 4
  %10 = load i32, ptr %9, align 4, !tbaa !17
  %11 = add nsw i32 %10, %1
  %12 = tail call { double, double } @getConjugateScalar(double %2, double %3) #17
  %13 = extractvalue { double, double } %12, 0
  %14 = extractvalue { double, double } %12, 1
  %15 = tail call { double, double } @getConjugateScalar(double %4, double %5) #17
  %16 = extractvalue { double, double } %15, 0
  %17 = extractvalue { double, double } %15, 1
  tail call void @statevec_compactUnitary(ptr noundef nonnull byval(%struct.Qureg) align 8 %0, i32 noundef %11, double %13, double %14, double %16, double %17) #17
  br label %18

18:                                               ; preds = %8, %6
  tail call void @qasm_recordCompactUnitary(ptr noundef nonnull byval(%struct.Qureg) align 8 %0, double %2, double %3, double %4, double %5, i32 noundef %1) #17
  ret void
}